target datalayout = "e-m:e-p270:32:32-p271:32:32-p272:64:64-i64:64-i128:128-f80:128-n8:16:32:64-S128"
target triple = "x86_64-pc-linux-gnu"

@.str = private unnamed_addr constant [17 x i8] c"  MD5 test #%d: \00", align 1
@md5_test_buflen = internal constant [7 x i64] [i64 0, i64 1, i64 3, i64 14, i64 26, i64 62, i64 80], align 16
@.str.1 = private unnamed_addr constant [8 x i8] c"passed\0A\00", align 1
@.str.2 = private unnamed_addr constant [2 x i8] c"\0A\00", align 1
@.str.3 = private unnamed_addr constant [8 x i8] c"failed\0A\00", align 1

; Function Attrs: nounwind uwtable
define hidden i32 @mbedtls_md5_self_test(i32 noundef %0) #0 {
  %2 = alloca i32, align 4
  %3 = alloca i32, align 4
  %4 = alloca i32, align 4
  %5 = alloca i32, align 4
  %6 = alloca [16 x i8], align 16
  %7 = alloca i32, align 4
  store i32 %0, ptr %3, align 4, !tbaa !10
  call void @llvm.lifetime.start.p0(i64 4, ptr %4) #7
  call void @llvm.lifetime.start.p0(i64 4, ptr %5) #7
  store i32 0, ptr %5, align 4, !tbaa !10
  call void @llvm.lifetime.start.p0(i64 16, ptr %6) #7
  store i32 0, ptr %4, align 4, !tbaa !10
  br label %8

8:                                                ; preds = %47, %1
  %9 = load i32, ptr %4, align 4, !tbaa !10
  %10 = icmp slt i32 %9, 7
  br i1 %10, label %11, label %50

11:                                               ; preds = %8
  %12 = load i32, ptr %3, align 4, !tbaa !10
  %13 = icmp ne i32 %12, 0
  br i1 %13, label %14, label %18

14:                                               ; preds = %11
  %15 = load i32, ptr %4, align 4, !tbaa !10
  %16 = add nsw i32 %15, 1
  %17 = call i32 (ptr, ...) @printf(ptr noundef @.str, i32 noundef %16)
  br label %18

18:                                               ; preds = %14, %11
  %19 = load i32, ptr %4, align 4, !tbaa !10
  %20 = sext i32 %19 to i64
  %21 = getelementptr inbounds [7 x [81 x i8]], ptr @md5_test_buf, i64 0, i64 %20
  %22 = getelementptr inbounds [81 x i8], ptr %21, i64 0, i64 0
  %23 = load i32, ptr %4, align 4, !tbaa !10
  %24 = sext i32 %23 to i64
  %25 = getelementptr inbounds [7 x i64], ptr @md5_test_buflen, i64 0, i64 %24
  %26 = load i64, ptr %25, align 8, !tbaa !20
  %27 = getelementptr inbounds [16 x i8], ptr %6, i64 0, i64 0
  %28 = call i32 @mbedtls_md5(ptr noundef %22, i64 noundef %26, ptr noundef %27)
  store i32 %28, ptr %5, align 4, !tbaa !10
  %29 = load i32, ptr %5, align 4, !tbaa !10
  %30 = icmp ne i32 %29, 0
  br i1 %30, label %31, label %32

31:                                               ; preds = %18
  br label %56

32:                                               ; preds = %18
  %33 = getelementptr inbounds [16 x i8], ptr %6, i64 0, i64 0
  %34 = load i32, ptr %4, align 4, !tbaa !10
  %35 = sext i32 %34 to i64
  %36 = getelementptr inbounds [7 x [16 x i8]], ptr @md5_test_sum, i64 0, i64 %35
  %37 = getelementptr inbounds [16 x i8], ptr %36, i64 0, i64 0
  %38 = call i32 @memcmp(ptr noundef %33, ptr noundef %37, i64 noundef 16) #8
  %39 = icmp ne i32 %38, 0
  br i1 %39, label %40, label %41

40:                                               ; preds = %32
  store i32 1, ptr %5, align 4, !tbaa !10
  br label %56

41:                                               ; preds = %32
  %42 = load i32, ptr %3, align 4, !tbaa !10
  %43 = icmp ne i32 %42, 0
  br i1 %43, label %44, label %46

44:                                               ; preds = %41
  %45 = call i32 (ptr, ...) @printf(ptr noundef @.str.1)
  br label %46

46:                                               ; preds = %44, %41
  br label %47

47:                                               ; preds = %46
  %48 = load i32, ptr %4, align 4, !tbaa !10
  %49 = add nsw i32 %48, 1
  store i32 %49, ptr %4, align 4, !tbaa !10
  br label %8, !llvm.loop !24

50:                                               ; preds = %8
  %51 = load i32, ptr %3, align 4, !tbaa !10
  %52 = icmp ne i32 %51, 0
  br i1 %52, label %53, label %55

53:                                               ; preds = %50
  %54 = call i32 (ptr, ...) @printf(ptr noundef @.str.2)
  br label %55

55:                                               ; preds = %53, %50
  store i32 0, ptr %2, align 4
  store i32 1, ptr %7, align 4
  br label %63

56:                                               ; preds = %40, %31
  %57 = load i32, ptr %3, align 4, !tbaa !10
  %58 = icmp ne i32 %57, 0
  br i1 %58, label %59, label %61

59:                                               ; preds = %56
  %60 = call i32 (ptr, ...) @printf(ptr noundef @.str.3)
  br label %61

61:                                               ; preds = %59, %56
  %62 = load i32, ptr %5, align 4, !tbaa !10
  store i32 %62, ptr %2, align 4
  store i32 1, ptr %7, align 4
  br label %63

63:                                               ; preds = %61, %55
  call void @llvm.lifetime.end.p0(i64 16, ptr %6) #7
  call void @llvm.lifetime.end.p0(i64 4, ptr %5) #7
  call void @llvm.lifetime.end.p0(i64 4, ptr %4) #7
  %64 = load i32, ptr %2, align 4
  ret i32 %64
}