; Function Attrs: nounwind uwtable
define hidden range(i32 0, 2) i32 @mbedtls_md5_self_test(i32 noundef %0) local_unnamed_addr #2 {
  %2 = alloca [16 x i8], align 16
  call void @llvm.lifetime.start.p0(i64 16, ptr nonnull %2) #11
  %.not16 = icmp eq i32 %0, 0
  br i1 %.not16, label %.split.us, label %.split

.split.us:                                        ; preds = %1, %8
  %indvars.iv26 = phi i64 [ %indvars.iv.next27, %8 ], [ 0, %1 ]
  %3 = getelementptr inbounds nuw [7 x [81 x i8]], ptr @md5_test_buf, i64 0, i64 %indvars.iv26
  %4 = getelementptr inbounds nuw [7 x i64], ptr @md5_test_buflen, i64 0, i64 %indvars.iv26
  %5 = load i64, ptr %4, align 8, !tbaa !16
  %6 = call i32 @mbedtls_md5(ptr noundef nonnull %3, i64 noundef %5, ptr noundef nonnull %2)
  %7 = getelementptr inbounds nuw [7 x [16 x i8]], ptr @md5_test_sum, i64 0, i64 %indvars.iv26
  %bcmp.us = call i32 @bcmp(ptr noundef nonnull dereferenceable(16) %2, ptr noundef nonnull dereferenceable(16) %7, i64 16)
  %.not17.us = icmp eq i32 %bcmp.us, 0
  br i1 %.not17.us, label %8, label %.critedge

8:                                                ; preds = %.split.us
  %indvars.iv.next27 = add nuw nsw i64 %indvars.iv26, 1
  %exitcond29.not = icmp eq i64 %indvars.iv.next27, 7
  br i1 %exitcond29.not, label %.split23.us, label %.split.us, !llvm.loop !18

.split:                                           ; preds = %1, %16
  %indvars.iv = phi i64 [ %indvars.iv.next, %16 ], [ 0, %1 ]
  %indvars.iv.next = add nuw nsw i64 %indvars.iv, 1
  %9 = trunc nuw nsw i64 %indvars.iv.next to i32
  %10 = tail call i32 (ptr, ...) @printf(ptr noundef nonnull dereferenceable(1) @.str, i32 noundef %9)
  %11 = getelementptr inbounds nuw [7 x [81 x i8]], ptr @md5_test_buf, i64 0, i64 %indvars.iv
  %12 = getelementptr inbounds nuw [7 x i64], ptr @md5_test_buflen, i64 0, i64 %indvars.iv
  %13 = load i64, ptr %12, align 8, !tbaa !16
  %14 = call i32 @mbedtls_md5(ptr noundef nonnull %11, i64 noundef %13, ptr noundef nonnull %2)
  %15 = getelementptr inbounds nuw [7 x [16 x i8]], ptr @md5_test_sum, i64 0, i64 %indvars.iv
  %bcmp = call i32 @bcmp(ptr noundef nonnull dereferenceable(16) %2, ptr noundef nonnull dereferenceable(16) %15, i64 16)
  %.not17 = icmp eq i32 %bcmp, 0
  br i1 %.not17, label %16, label %.split21.us

16:                                               ; preds = %.split
  %puts = tail call i32 @puts(ptr nonnull dereferenceable(1) @str)
  %exitcond.not = icmp eq i64 %indvars.iv.next, 7
  br i1 %exitcond.not, label %.split23.us, label %.split, !llvm.loop !18

.split23.us:                                      ; preds = %16, %8
  br i1 %.not16, label %.critedge, label %17

17:                                               ; preds = %.split23.us
  %putchar = tail call i32 @putchar(i32 10)
  br label %.critedge

.split21.us:                                      ; preds = %.split
  %puts18 = tail call i32 @puts(ptr nonnull dereferenceable(1) @str.1)
  br label %.critedge

.critedge:                                        ; preds = %.split.us, %.split21.us, %.split23.us, %17
  %.014 = phi i32 [ 0, %17 ], [ 0, %.split23.us ], [ 1, %.split21.us ], [ 1, %.split.us ]
  call void @llvm.lifetime.end.p0(i64 16, ptr nonnull %2) #11
  ret i32 %.014
}